(dp0
S'w'
p1
(lp2
F1429.7484586929716
aF585.4771886559803
asS'p'
p3
(lp4
F1148.405347593583
aF1373.4042780748664
asS's'
p5
(lp6
F745.3019447287616
aF708.5547594677585
asS'v'
p7
(lp8
F1159.7096424702058
aF617.6760563380282
asS'y'
p9
(lp10
F1074.1175115207373
aF1431.9331797235022
asS'x'
p11
(lp12
F1073.5383759733036
aF640.3882091212458
asS'r'
p13
(lp14
F1072.640625
aF693.0416666666666
asS'u'
p15
(lp16
F1150.4450154162384
aF679.7687564234327
asS'a'
p17
(lp18
F1048.671287128713
aF727.7851485148515
asS'q'
p19
(lp20
F564.7482269503546
aF1262.919621749409
asS'c'
p21
(lp22
F733.5709908069458
aF674.6516853932584
asS'b'
p23
(lp24
F1082.2107574094402
aF1410.0021953896817
asS'e'
p25
(lp26
F844.5338645418327
aF709.3147410358566
asS'd'
p27
(lp28
F914.3782051282051
aF1234.4540598290598
asS'g'
p29
(lp30
F845.5902211874272
aF1334.8416763678697
asS'f'
p31
(lp32
F905.7098501070664
aF2303.8608137044966
asS'i'
p33
(lp34
F849.4255952380952
aF1196.4404761904761
asS'h'
p35
(lp36
F1018.0089585666293
aF1459.0929451287793
asS'k'
p37
(lp38
F941.4666666666667
aF1402.1333333333334
asS'j'
p39
(lp40
F890.0699223085461
aF1928.581576026637
asS'm'
p41
(lp42
F1604.5784708249496
aF689.5764587525151
asS'l'
p43
(lp44
F944.2790224032586
aF1586.478615071283
asS'o'
p45
(lp46
F944.018
aF755.535
asS'n'
p47
(lp48
F1228.010967098704
aF684.839481555334
asS'1'
p49
(lp50
F584.9612903225807
aF1093.4348387096775
asS'0'
p51
(lp52
F753.5894465894465
aF1002.027027027027
asS'3'
p53
(lp54
F686.7796391752578
aF1085.8079896907216
asS'2'
p55
(lp56
F843.764857881137
aF1031.5736434108528
asS'5'
p57
(lp58
F714.5025839793282
aF1083.375968992248
asS'4'
p59
(lp60
F720.6507731958762
aF1201.0038659793815
asS'7'
p61
(lp62
F841.2623376623377
aF1042.6207792207792
asS'6'
p63
(lp64
F607.8510362694301
aF1035.7215025906735
asS'9'
p65
(lp66
F663.129074315515
aF1117.5801825293352
asS'8'
p67
(lp68
F653.2337662337662
aF1191.344155844156
asS'z'
p69
(lp70
F1101.6397660818714
aF1352.8280701754386
asS't'
p71
(lp72
F941.8146596858638
aF1207.8649214659686
as.